target datalayout = "e-m:e-p270:32:32-p271:32:32-p272:64:64-i64:64-i128:128-f80:128-n8:16:32:64-S128"
target triple = "x86_64-pc-linux-gnu"

%struct.ibf_load = type { ptr, i64, %struct.ibf_load_buffer, i64, ptr, i64, ptr }
%struct.ibf_load_buffer = type { ptr, i32, i64, i32, i32 }
%struct.ibf_object_bignum = type { i64, [0 x i32] }

@rb_eIndexError = external global i64, align 8
@.str.241 = private unnamed_addr constant [32 x i8] c"object offset out of range: %zd\00", align 1

; Function Attrs: nounwind sspstrong uwtable
define internal ptr @ibf_load_check_offset(ptr noundef %0, i64 noundef %1) #0 {
  %3 = alloca ptr, align 8
  %4 = alloca i64, align 8
  store ptr %0, ptr %3, align 8, !tbaa !253
  store i64 %1, ptr %4, align 8, !tbaa !7
  %5 = load i64, ptr %4, align 8, !tbaa !7
  %6 = load ptr, ptr %3, align 8, !tbaa !253
  %7 = getelementptr inbounds nuw %struct.ibf_load, ptr %6, i32 0, i32 6
  %8 = load ptr, ptr %7, align 8, !tbaa !288
  %9 = getelementptr inbounds nuw %struct.ibf_load_buffer, ptr %8, i32 0, i32 1
  %10 = load i32, ptr %9, align 8, !tbaa !1348
  %11 = zext i32 %10 to i64
  %12 = icmp uge i64 %5, %11
  br i1 %12, label %13, label %16

13:                                               ; preds = %2
  %14 = load i64, ptr @rb_eIndexError, align 8, !tbaa !7
  %15 = load i64, ptr %4, align 8, !tbaa !7
  call void (i64, ptr, ...) @rb_raise(i64 noundef %14, ptr noundef @.str.241, i64 noundef %15) #36
  unreachable

16:                                               ; preds = %2
  %17 = load ptr, ptr %3, align 8, !tbaa !253
  %18 = getelementptr inbounds nuw %struct.ibf_load, ptr %17, i32 0, i32 6
  %19 = load ptr, ptr %18, align 8, !tbaa !288
  %20 = getelementptr inbounds nuw %struct.ibf_load_buffer, ptr %19, i32 0, i32 0
  %21 = load ptr, ptr %20, align 8, !tbaa !1347
  %22 = load i64, ptr %4, align 8, !tbaa !7
  %23 = getelementptr i8, ptr %21, i64 %22
  ret ptr %23
}

; Function Attrs: nounwind sspstrong uwtable
define internal i64 @ibf_load_object_bignum(ptr noundef %0, ptr noundef %1, i32 noundef %2) #0 {
  %4 = alloca ptr, align 8
  %5 = alloca ptr, align 8
  %6 = alloca i32, align 4
  %7 = alloca ptr, align 8
  %8 = alloca i32, align 4
  %9 = alloca i64, align 8
  %10 = alloca i32, align 4
  %11 = alloca i64, align 8
  store ptr %0, ptr %4, align 8, !tbaa !253
  store ptr %1, ptr %5, align 8, !tbaa !1369
  store i32 %2, ptr %6, align 4, !tbaa !41
  call void @llvm.lifetime.start.p0(i64 8, ptr %7) #31
  %12 = load ptr, ptr %4, align 8, !tbaa !253
  %13 = load i32, ptr %6, align 4, !tbaa !41
  %14 = sub i32 %13, 1
  %15 = zext i32 %14 to i64
  %16 = udiv i64 %15, 8
  %17 = add i64 %16, 1
  %18 = mul i64 %17, 8
  %19 = call ptr @ibf_load_check_offset(ptr noundef %12, i64 noundef %18)
  store ptr %19, ptr %7, align 8, !tbaa !1378
  call void @llvm.lifetime.start.p0(i64 4, ptr %8) #31
  %20 = load ptr, ptr %7, align 8, !tbaa !1378
  %21 = getelementptr inbounds nuw %struct.ibf_object_bignum, ptr %20, i32 0, i32 0
  %22 = load i64, ptr %21, align 8, !tbaa !7
  %23 = icmp sgt i64 %22, 0
  %24 = zext i1 %23 to i32
  store i32 %24, ptr %8, align 4, !tbaa !41
  call void @llvm.lifetime.start.p0(i64 8, ptr %9) #31
  %25 = load i32, ptr %8, align 4, !tbaa !41
  %26 = icmp sgt i32 %25, 0
  br i1 %26, label %27, label %31

27:                                               ; preds = %3
  %28 = load ptr, ptr %7, align 8, !tbaa !1378
  %29 = getelementptr inbounds nuw %struct.ibf_object_bignum, ptr %28, i32 0, i32 0
  %30 = load i64, ptr %29, align 8, !tbaa !7
  br label %36

31:                                               ; preds = %3
  %32 = load ptr, ptr %7, align 8, !tbaa !1378
  %33 = getelementptr inbounds nuw %struct.ibf_object_bignum, ptr %32, i32 0, i32 0
  %34 = load i64, ptr %33, align 8, !tbaa !7
  %35 = mul i64 -1, %34
  br label %36

36:                                               ; preds = %31, %27
  %37 = phi i64 [ %30, %27 ], [ %35, %31 ]
  store i64 %37, ptr %9, align 8, !tbaa !7
  call void @llvm.lifetime.start.p0(i64 4, ptr %10) #31
  store i32 66, ptr %10, align 4, !tbaa !41
  call void @llvm.lifetime.start.p0(i64 8, ptr %11) #31
  %38 = load ptr, ptr %7, align 8, !tbaa !1378
  %39 = getelementptr inbounds nuw %struct.ibf_object_bignum, ptr %38, i32 0, i32 1
  %40 = getelementptr inbounds [0 x i32], ptr %39, i64 0, i64 0
  %41 = load i64, ptr %9, align 8, !tbaa !7
  %42 = load i32, ptr %8, align 4, !tbaa !41
  %43 = icmp eq i32 %42, 0
  %44 = select i1 %43, i32 512, i32 0
  %45 = or i32 66, %44
  %46 = call i64 @rb_integer_unpack(ptr noundef %40, i64 noundef %41, i64 noundef 4, i64 noundef 0, i32 noundef %45)
  store i64 %46, ptr %11, align 8, !tbaa !7
  %47 = load ptr, ptr %5, align 8, !tbaa !1369
  %48 = load i8, ptr %47, align 4
  %49 = lshr i8 %48, 7
  %50 = zext i8 %49 to i32
  %51 = icmp ne i32 %50, 0
  br i1 %51, label %52, label %55

52:                                               ; preds = %36
  %53 = load i64, ptr %11, align 8, !tbaa !7
  %54 = call i64 @rb_obj_hide(i64 noundef %53)
  br label %55

55:                                               ; preds = %52, %36
  %56 = load ptr, ptr %5, align 8, !tbaa !1369
  %57 = load i8, ptr %56, align 4
  %58 = lshr i8 %57, 6
  %59 = and i8 %58, 1
  %60 = zext i8 %59 to i32
  %61 = icmp ne i32 %60, 0
  br i1 %61, label %62, label %65

62:                                               ; preds = %55
  %63 = load i64, ptr %11, align 8, !tbaa !7
  %64 = call i64 @rb_obj_freeze(i64 noundef %63)
  br label %65

65:                                               ; preds = %62, %55
  %66 = load i64, ptr %11, align 8, !tbaa !7
  call void @llvm.lifetime.end.p0(i64 8, ptr %11) #31
  call void @llvm.lifetime.end.p0(i64 4, ptr %10) #31
  call void @llvm.lifetime.end.p0(i64 8, ptr %9) #31
  call void @llvm.lifetime.end.p0(i64 4, ptr %8) #31
  call void @llvm.lifetime.end.p0(i64 8, ptr %7) #31
  ret i64 %66
}