; Function Attrs: nounwind sspstrong uwtable
define internal i64 @ibf_load_object_bignum(ptr noundef readonly captures(none) %0, ptr noundef readonly captures(none) %1, i32 noundef %2) #1 {
  %4 = add i32 %2, -1
  %5 = lshr i32 %4, 3
  %narrow = add nuw nsw i32 %5, 1
  %6 = zext nneg i32 %narrow to i64
  %7 = shl nuw nsw i64 %6, 3
  %8 = getelementptr i8, ptr %0, i64 72
  %.val = load ptr, ptr %8, align 8, !tbaa !344
  %9 = getelementptr inbounds nuw i8, ptr %.val, i64 8
  %10 = load i32, ptr %9, align 8, !tbaa !346
  %11 = zext i32 %10 to i64
  %.not.i = icmp samesign ult i64 %7, %11
  br i1 %.not.i, label %ibf_load_check_offset.exit, label %12

12:                                               ; preds = %3
  %13 = load i64, ptr @rb_eIndexError, align 8, !tbaa !37
  tail call void (i64, ptr, ...) @rb_raise(i64 noundef %13, ptr noundef nonnull @.str.241, i64 noundef range(i64 8, 4294967297) %7) #42
  unreachable

ibf_load_check_offset.exit:                       ; preds = %3
  %14 = load ptr, ptr %.val, align 8, !tbaa !345
  %15 = getelementptr i8, ptr %14, i64 %7
  %16 = load i64, ptr %15, align 8, !tbaa !37
  %17 = icmp slt i64 %16, 1
  %18 = select i1 %17, i32 578, i32 66
  %19 = tail call i64 @llvm.abs.i64(i64 %16, i1 false)
  %20 = getelementptr inbounds nuw i8, ptr %15, i64 8
  %21 = tail call i64 @rb_integer_unpack(ptr noundef nonnull %20, i64 noundef %19, i64 noundef 4, i64 noundef 0, i32 noundef %18) #38
  %22 = load i8, ptr %1, align 4
  %.not = icmp sgt i8 %22, -1
  br i1 %.not, label %25, label %23

23:                                               ; preds = %ibf_load_check_offset.exit
  %24 = tail call i64 @rb_obj_hide(i64 noundef %21) #38
  %.pre = load i8, ptr %1, align 4
  br label %25

25:                                               ; preds = %23, %ibf_load_check_offset.exit
  %26 = phi i8 [ %.pre, %23 ], [ %22, %ibf_load_check_offset.exit ]
  %27 = and i8 %26, 64
  %.not13 = icmp eq i8 %27, 0
  br i1 %.not13, label %30, label %28

28:                                               ; preds = %25
  %29 = tail call i64 @rb_obj_freeze(i64 noundef %21) #38
  br label %30

30:                                               ; preds = %28, %25
  ret i64 %21
}